; Function Attrs: nounwind uwtable
define range(i32 -1, 1) i32 @H5AC_insert_entry(ptr noundef %0, ptr noundef %1, i64 noundef %2, ptr noundef %3, i32 noundef %4) local_unnamed_addr #4 {
  %6 = load i8, ptr @H5AC_init_g, align 1, !tbaa !3, !range !7, !noundef !8
  %7 = trunc nuw i8 %6 to i1
  %8 = load i8, ptr @H5_libterm_g, align 1, !range !7
  %9 = trunc nuw i8 %8 to i1
  %10 = select i1 %7, i1 true, i1 %9
  br i1 %10, label %11, label %.thread, !prof !9

.thread:                                          ; preds = %5
  store i8 1, ptr @H5AC_init_g, align 1, !tbaa !3
  br label %14

11:                                               ; preds = %5
  %12 = xor i1 %9, true
  %13 = select i1 %7, i1 true, i1 %12
  br i1 %13, label %14, label %49, !prof !41

14:                                               ; preds = %.thread, %11
  %15 = tail call i32 @H5F_get_intent(ptr noundef %0) #8
  %16 = and i32 %15, 1
  %17 = icmp eq i32 %16, 0
  br i1 %17, label %18, label %22

18:                                               ; preds = %14
  %19 = load i64, ptr @H5E_CACHE_g, align 8, !tbaa !42
  %20 = load i64, ptr @H5E_BADVALUE_g, align 8, !tbaa !42
  %21 = tail call i32 (ptr, ptr, i32, i64, i64, ptr, ...) @H5E_printf_stack(ptr noundef nonnull @.str, ptr noundef nonnull @__func__.H5AC_insert_entry, i32 noundef 750, i64 noundef %19, i64 noundef %20, ptr noundef nonnull @.str.16) #8
  br label %29

22:                                               ; preds = %14
  %23 = tail call i32 @H5C_insert_entry(ptr noundef %0, ptr noundef %1, i64 noundef %2, ptr noundef %3, i32 noundef %4) #8
  %24 = icmp slt i32 %23, 0
  br i1 %24, label %25, label %29

25:                                               ; preds = %22
  %26 = load i64, ptr @H5E_CACHE_g, align 8, !tbaa !42
  %27 = load i64, ptr @H5E_CANTINS_g, align 8, !tbaa !42
  %28 = tail call i32 (ptr, ptr, i32, i64, i64, ptr, ...) @H5E_printf_stack(ptr noundef nonnull @.str, ptr noundef nonnull @__func__.H5AC_insert_entry, i32 noundef 759, i64 noundef %26, i64 noundef %27, ptr noundef nonnull @.str.17) #8
  br label %29

29:                                               ; preds = %22, %25, %18
  %.0 = phi i32 [ -1, %18 ], [ -1, %25 ], [ 0, %22 ]
  %30 = getelementptr inbounds nuw i8, ptr %0, i64 16
  %31 = load ptr, ptr %30, align 8, !tbaa !11
  %32 = getelementptr inbounds nuw i8, ptr %31, i64 112
  %33 = load ptr, ptr %32, align 8, !tbaa !20
  %34 = getelementptr inbounds nuw i8, ptr %33, i64 8
  %35 = load ptr, ptr %34, align 8, !tbaa !52
  %36 = getelementptr inbounds nuw i8, ptr %35, i64 1
  %37 = load i8, ptr %36, align 1, !tbaa !60, !range !7, !noundef !8
  %38 = trunc nuw i8 %37 to i1
  br i1 %38, label %39, label %49

39:                                               ; preds = %29
  %40 = load i32, ptr %1, align 8, !tbaa !116
  %41 = getelementptr inbounds nuw i8, ptr %3, i64 16
  %42 = load i64, ptr %41, align 8, !tbaa !119
  %43 = tail call i32 @H5C_log_write_insert_entry_msg(ptr noundef nonnull %33, i64 noundef %2, i32 noundef %40, i32 noundef %4, i64 noundef %42, i32 noundef %.0) #8
  %44 = icmp slt i32 %43, 0
  br i1 %44, label %45, label %49

45:                                               ; preds = %39
  %46 = load i64, ptr @H5E_CACHE_g, align 8, !tbaa !42
  %47 = load i64, ptr @H5E_LOGGING_g, align 8, !tbaa !42
  %48 = tail call i32 (ptr, ptr, i32, i64, i64, ptr, ...) @H5E_printf_stack(ptr noundef nonnull @.str, ptr noundef nonnull @__func__.H5AC_insert_entry, i32 noundef 783, i64 noundef %46, i64 noundef %47, ptr noundef nonnull @.str.7) #8
  br label %49

49:                                               ; preds = %29, %45, %39, %11
  %.1 = phi i32 [ -1, %45 ], [ %.0, %39 ], [ %.0, %29 ], [ 0, %11 ]
  ret i32 %.1
}